target datalayout = "e-m:e-p270:32:32-p271:32:32-p272:64:64-i64:64-i128:128-f80:128-n8:16:32:64-S128"
target triple = "x86_64-unknown-linux-gnu"

@cursor_visible_phase = internal global i8 0, align 1
@cursor_timer = internal global ptr null, align 8

; Function Attrs: nounwind sspstrong uwtable
define internal i64 @qemu_clock_get_ms(i32 noundef %type) #0 {
entry:
  %type.addr = alloca i32, align 4
  store i32 %type, ptr %type.addr, align 4
  %0 = load i32, ptr %type.addr, align 4
  %call = call i64 @qemu_clock_get_ns(i32 noundef %0)
  %div = sdiv i64 %call, 1000000
  ret i64 %div
}

; Function Attrs: nounwind sspstrong uwtable
define dso_local void @qemu_text_console_update_cursor() #0 {
entry:
  %0 = load i8, ptr @cursor_visible_phase, align 1
  %tobool = trunc i8 %0 to i1
  %lnot = xor i1 %tobool, true
  %frombool = zext i1 %lnot to i8
  store i8 %frombool, ptr @cursor_visible_phase, align 1
  %call = call i32 @qemu_invalidate_text_consoles()
  %tobool1 = icmp ne i32 %call, 0
  br i1 %tobool1, label %if.then, label %if.end

if.then:                                          ; preds = %entry
  %1 = load ptr, ptr @cursor_timer, align 8
  %call2 = call i64 @qemu_clock_get_ms(i32 noundef 0)
  %add = add i64 %call2, 250
  call void @timer_mod(ptr noundef %1, i64 noundef %add)
  br label %if.end

if.end:                                           ; preds = %if.then, %entry
  ret void
}

; Function Attrs: nounwind sspstrong uwtable
define internal void @cursor_timer_cb(ptr noundef %opaque) #0 {
entry:
  %opaque.addr = alloca ptr, align 8
  store ptr %opaque, ptr %opaque.addr, align 8
  call void @qemu_text_console_update_cursor()
  ret void
}