; Function Attrs: nounwind sspstrong uwtable
define internal void @cursor_timer_cb(ptr readnone captures(none) %opaque) #0 {
entry:
  %0 = load i8, ptr @cursor_visible_phase, align 1
  %lnot.i = and i8 %0, 1
  %frombool.i = xor i8 %lnot.i, 1
  store i8 %frombool.i, ptr @cursor_visible_phase, align 1
  %call.i = tail call i32 @qemu_invalidate_text_consoles() #12
  %tobool1.not.i = icmp eq i32 %call.i, 0
  br i1 %tobool1.not.i, label %qemu_text_console_update_cursor.exit, label %if.then.i

if.then.i:                                        ; preds = %entry
  %1 = load ptr, ptr @cursor_timer, align 8
  %call.i.i = tail call i64 @qemu_clock_get_ns(i32 noundef 0) #12
  %div.i.i = sdiv i64 %call.i.i, 1000000
  %add.i = add nsw i64 %div.i.i, 250
  tail call void @timer_mod(ptr noundef %1, i64 noundef %add.i) #12
  br label %qemu_text_console_update_cursor.exit

qemu_text_console_update_cursor.exit:             ; preds = %entry, %if.then.i
  ret void
}